; Function Attrs: mustprogress nounwind uwtable
define internal noundef i32 @_ZN9Stockfish12_GLOBAL__N_13Tie5uflowEv(ptr nocapture noundef nonnull readonly align 8 dereferenceable(80) %0) unnamed_addr #3 align 2 {
  %2 = getelementptr inbounds i8, ptr %0, i64 64
  %3 = load ptr, ptr %2, align 8
  %4 = tail call noundef i32 @_ZNSt15basic_streambufIcSt11char_traitsIcEE6sbumpcEv(ptr noundef nonnull align 8 dereferenceable(64) %3) #21
  %5 = load i32, ptr @_ZZN9Stockfish12_GLOBAL__N_13Tie3logEiPKcE4last, align 4
  %6 = icmp eq i32 %5, 10
  br i1 %6, label %7, label %_ZN9Stockfish12_GLOBAL__N_13Tie3logEiPKc.exit

7:                                                ; preds = %1
  %8 = getelementptr inbounds i8, ptr %0, i64 72
  %9 = load ptr, ptr %8, align 8
  %10 = tail call noundef i64 @_ZNSt15basic_streambufIcSt11char_traitsIcEE5sputnEPKcl(ptr noundef nonnull align 8 dereferenceable(64) %9, ptr noundef nonnull @.str.35, i64 noundef 3) #21
  br label %_ZN9Stockfish12_GLOBAL__N_13Tie3logEiPKc.exit

_ZN9Stockfish12_GLOBAL__N_13Tie3logEiPKc.exit:    ; preds = %1, %7
  %11 = getelementptr inbounds i8, ptr %0, i64 72
  %12 = load ptr, ptr %11, align 8
  %13 = trunc i32 %4 to i8
  %14 = tail call noundef i32 @_ZNSt15basic_streambufIcSt11char_traitsIcEE5sputcEc(ptr noundef nonnull align 8 dereferenceable(64) %12, i8 noundef signext %13) #21
  store i32 %14, ptr @_ZZN9Stockfish12_GLOBAL__N_13Tie3logEiPKcE4last, align 4
  ret i32 %14
}